target datalayout = "e-m:e-p270:32:32-p271:32:32-p272:64:64-i64:64-i128:128-f80:128-n8:16:32:64-S128"
target triple = "x86_64-pc-linux-gnu"

%struct.Scheduler = type { ptr, ptr, i32, ptr, i32, i32, %union.pthread_mutex_t, i32, i32, %union.pthread_mutex_t, %union.pthread_cond_t, ptr, i32, ptr, i32, ptr, i32, ptr, i32, ptr, i32, i32, i32, %union.pthread_mutex_t, i64 }
%union.pthread_cond_t = type { %struct.__pthread_cond_s }
%struct.__pthread_cond_s = type { %union.__atomic_wide_counter, %union.__atomic_wide_counter, [2 x i32], [2 x i32], i32, i32, [2 x i32] }
%union.__atomic_wide_counter = type { i64 }
%union.pthread_mutex_t = type { %struct.__pthread_mutex_s }
%struct.__pthread_mutex_s = type { i32, i32, i32, i32, i32, i16, i16, %struct.__pthread_internal_list }
%struct.__pthread_internal_list = type { ptr, ptr }
%struct.SchTask = type { ptr, %struct.SchedulerNode, ptr, ptr, i64, i32 }
%struct.SchedulerNode = type { i32, i32, i32 }
%struct.SchMux = type { ptr, ptr, i32, i32, ptr, %struct.SchTask, i32, ptr, i32, ptr }

@sch_mux_class = internal constant { ptr, ptr, ptr, i32, i32, i32, i32, ptr, ptr, ptr, ptr, i32, [4 x i8] } { ptr @.str.34, ptr null, ptr null, i32 3932772, i32 0, i32 64, i32 0, ptr null, ptr null, ptr null, ptr null, i32 0, [4 x i8] zeroinitializer }, align 8

; Function Attrs: nounwind uwtable
define internal void @task_init(ptr noundef %0, ptr noundef %1, i32 noundef %2, i32 noundef %3, ptr noundef %4, ptr noundef %5) #0 {
  %7 = alloca ptr, align 8
  %8 = alloca ptr, align 8
  %9 = alloca i32, align 4
  %10 = alloca i32, align 4
  %11 = alloca ptr, align 8
  %12 = alloca ptr, align 8
  store ptr %0, ptr %7, align 8, !tbaa !10
  store ptr %1, ptr %8, align 8, !tbaa !101
  store i32 %2, ptr %9, align 4, !tbaa !12
  store i32 %3, ptr %10, align 4, !tbaa !12
  store ptr %4, ptr %11, align 8, !tbaa !97
  store ptr %5, ptr %12, align 8, !tbaa !97
  %13 = load ptr, ptr %7, align 8, !tbaa !10
  %14 = load ptr, ptr %8, align 8, !tbaa !101
  %15 = getelementptr inbounds nuw %struct.SchTask, ptr %14, i32 0, i32 0
  store ptr %13, ptr %15, align 8, !tbaa !103
  %16 = load i32, ptr %9, align 4, !tbaa !12
  %17 = load ptr, ptr %8, align 8, !tbaa !101
  %18 = getelementptr inbounds nuw %struct.SchTask, ptr %17, i32 0, i32 1
  %19 = getelementptr inbounds nuw %struct.SchedulerNode, ptr %18, i32 0, i32 0
  store i32 %16, ptr %19, align 8, !tbaa !104
  %20 = load i32, ptr %10, align 4, !tbaa !12
  %21 = load ptr, ptr %8, align 8, !tbaa !101
  %22 = getelementptr inbounds nuw %struct.SchTask, ptr %21, i32 0, i32 1
  %23 = getelementptr inbounds nuw %struct.SchedulerNode, ptr %22, i32 0, i32 1
  store i32 %20, ptr %23, align 4, !tbaa !105
  %24 = load ptr, ptr %11, align 8, !tbaa !97
  %25 = load ptr, ptr %8, align 8, !tbaa !101
  %26 = getelementptr inbounds nuw %struct.SchTask, ptr %25, i32 0, i32 2
  store ptr %24, ptr %26, align 8, !tbaa !106
  %27 = load ptr, ptr %12, align 8, !tbaa !97
  %28 = load ptr, ptr %8, align 8, !tbaa !101
  %29 = getelementptr inbounds nuw %struct.SchTask, ptr %28, i32 0, i32 3
  store ptr %27, ptr %29, align 8, !tbaa !107
  ret void
}

; Function Attrs: nounwind uwtable
define i32 @sch_add_mux(ptr noundef %0, ptr noundef %1, ptr noundef %2, ptr noundef %3, i32 noundef %4, i32 noundef %5) #0 {
  %7 = alloca i32, align 4
  %8 = alloca ptr, align 8
  %9 = alloca ptr, align 8
  %10 = alloca ptr, align 8
  %11 = alloca ptr, align 8
  %12 = alloca i32, align 4
  %13 = alloca i32, align 4
  %14 = alloca i32, align 4
  %15 = alloca ptr, align 8
  %16 = alloca i32, align 4
  %17 = alloca i32, align 4
  store ptr %0, ptr %8, align 8, !tbaa !10
  store ptr %1, ptr %9, align 8, !tbaa !97
  store ptr %2, ptr %10, align 8, !tbaa !97
  store ptr %3, ptr %11, align 8, !tbaa !97
  store i32 %4, ptr %12, align 4, !tbaa !12
  store i32 %5, ptr %13, align 4, !tbaa !12
  call void @llvm.lifetime.start.p0(i64 4, ptr %14) #9
  %18 = load ptr, ptr %8, align 8, !tbaa !10
  %19 = getelementptr inbounds nuw %struct.Scheduler, ptr %18, i32 0, i32 4
  %20 = load i32, ptr %19, align 8, !tbaa !39
  store i32 %20, ptr %14, align 4, !tbaa !12
  call void @llvm.lifetime.start.p0(i64 8, ptr %15) #9
  call void @llvm.lifetime.start.p0(i64 4, ptr %16) #9
  %21 = load ptr, ptr %8, align 8, !tbaa !10
  %22 = getelementptr inbounds nuw %struct.Scheduler, ptr %21, i32 0, i32 3
  %23 = load ptr, ptr %8, align 8, !tbaa !10
  %24 = getelementptr inbounds nuw %struct.Scheduler, ptr %23, i32 0, i32 4
  %25 = load ptr, ptr %8, align 8, !tbaa !10
  %26 = getelementptr inbounds nuw %struct.Scheduler, ptr %25, i32 0, i32 4
  %27 = load i32, ptr %26, align 8, !tbaa !39
  %28 = add i32 %27, 1
  %29 = call i32 @grow_array(ptr noundef %22, i32 noundef 120, ptr noundef %24, i32 noundef %28)
  store i32 %29, ptr %16, align 4, !tbaa !12
  %30 = load i32, ptr %16, align 4, !tbaa !12
  %31 = icmp slt i32 %30, 0
  br i1 %31, label %32, label %34

32:                                               ; preds = %6
  %33 = load i32, ptr %16, align 4, !tbaa !12
  store i32 %33, ptr %7, align 4
  store i32 1, ptr %17, align 4
  br label %61

34:                                               ; preds = %6
  %35 = load ptr, ptr %8, align 8, !tbaa !10
  %36 = getelementptr inbounds nuw %struct.Scheduler, ptr %35, i32 0, i32 3
  %37 = load ptr, ptr %36, align 8, !tbaa !40
  %38 = load i32, ptr %14, align 4, !tbaa !12
  %39 = zext i32 %38 to i64
  %40 = getelementptr inbounds nuw %struct.SchMux, ptr %37, i64 %39
  store ptr %40, ptr %15, align 8, !tbaa !41
  %41 = load ptr, ptr %15, align 8, !tbaa !41
  %42 = getelementptr inbounds nuw %struct.SchMux, ptr %41, i32 0, i32 0
  store ptr @sch_mux_class, ptr %42, align 8, !tbaa !98
  %43 = load ptr, ptr %10, align 8, !tbaa !97
  %44 = load ptr, ptr %15, align 8, !tbaa !41
  %45 = getelementptr inbounds nuw %struct.SchMux, ptr %44, i32 0, i32 4
  store ptr %43, ptr %45, align 8, !tbaa !99
  %46 = load i32, ptr %13, align 4, !tbaa !12
  %47 = load ptr, ptr %15, align 8, !tbaa !41
  %48 = getelementptr inbounds nuw %struct.SchMux, ptr %47, i32 0, i32 8
  store i32 %46, ptr %48, align 8, !tbaa !100
  %49 = load ptr, ptr %8, align 8, !tbaa !10
  %50 = load ptr, ptr %15, align 8, !tbaa !41
  %51 = getelementptr inbounds nuw %struct.SchMux, ptr %50, i32 0, i32 5
  %52 = load i32, ptr %14, align 4, !tbaa !12
  %53 = load ptr, ptr %9, align 8, !tbaa !97
  %54 = load ptr, ptr %11, align 8, !tbaa !97
  call void @task_init(ptr noundef %49, ptr noundef %51, i32 noundef 2, i32 noundef %52, ptr noundef %53, ptr noundef %54)
  %55 = load i32, ptr %12, align 4, !tbaa !12
  %56 = load ptr, ptr %8, align 8, !tbaa !10
  %57 = getelementptr inbounds nuw %struct.Scheduler, ptr %56, i32 0, i32 20
  %58 = load i32, ptr %57, align 8, !tbaa !94
  %59 = and i32 %58, %55
  store i32 %59, ptr %57, align 8, !tbaa !94
  %60 = load i32, ptr %14, align 4, !tbaa !12
  store i32 %60, ptr %7, align 4
  store i32 1, ptr %17, align 4
  br label %61

61:                                               ; preds = %34, %32
  call void @llvm.lifetime.end.p0(i64 4, ptr %16) #9
  call void @llvm.lifetime.end.p0(i64 8, ptr %15) #9
  call void @llvm.lifetime.end.p0(i64 4, ptr %14) #9
  %62 = load i32, ptr %7, align 4
  ret i32 %62
}