; Function Attrs: nounwind uwtable
define i32 @sch_add_mux(ptr noundef %0, ptr noundef %1, ptr noundef %2, ptr noundef %3, i32 noundef %4, i32 noundef %5) local_unnamed_addr #0 {
  %7 = getelementptr inbounds nuw i8, ptr %0, i64 32
  %8 = load i32, ptr %7, align 8, !tbaa !20
  %9 = getelementptr inbounds nuw i8, ptr %0, i64 24
  %10 = add i32 %8, 1
  %11 = tail call i32 @grow_array(ptr noundef nonnull %9, i32 noundef 120, ptr noundef nonnull %7, i32 noundef %10) #9
  %12 = icmp slt i32 %11, 0
  br i1 %12, label %27, label %13

13:                                               ; preds = %6
  %14 = load ptr, ptr %9, align 8, !tbaa !35
  %15 = zext i32 %8 to i64
  %16 = getelementptr inbounds nuw %struct.SchMux, ptr %14, i64 %15
  store ptr @sch_mux_class, ptr %16, align 8, !tbaa !86
  %17 = getelementptr inbounds nuw i8, ptr %16, i64 24
  store ptr %2, ptr %17, align 8, !tbaa !87
  %18 = getelementptr inbounds nuw i8, ptr %16, i64 104
  store i32 %5, ptr %18, align 8, !tbaa !88
  %19 = getelementptr inbounds nuw i8, ptr %16, i64 32
  store ptr %0, ptr %19, align 8, !tbaa !89
  %20 = getelementptr inbounds nuw i8, ptr %16, i64 40
  store i32 2, ptr %20, align 8, !tbaa !90
  %21 = getelementptr inbounds nuw i8, ptr %16, i64 44
  store i32 %8, ptr %21, align 4, !tbaa !91
  %22 = getelementptr inbounds nuw i8, ptr %16, i64 56
  store ptr %1, ptr %22, align 8, !tbaa !92
  %23 = getelementptr inbounds nuw i8, ptr %16, i64 64
  store ptr %3, ptr %23, align 8, !tbaa !93
  %24 = getelementptr inbounds nuw i8, ptr %0, i64 248
  %25 = load i32, ptr %24, align 8, !tbaa !84
  %26 = and i32 %25, %4
  store i32 %26, ptr %24, align 8, !tbaa !84
  br label %27

27:                                               ; preds = %6, %13
  %.0 = phi i32 [ %8, %13 ], [ %11, %6 ]
  ret i32 %.0
}